; Function Attrs: mustprogress uwtable
define hidden void @_ZN4cvc58internal6theory11quantifiers22ExpressionMinerManager25enableFilterWeakSolutionsEv(ptr noundef nonnull align 8 dereferenceable(608) initializes((16, 17)) %0) local_unnamed_addr #3 align 2 {
  %2 = getelementptr inbounds nuw i8, ptr %0, i64 16
  store i8 1, ptr %2, align 8, !tbaa !6
  %3 = getelementptr inbounds nuw i8, ptr %0, i64 24
  %4 = getelementptr inbounds nuw i8, ptr %0, i64 584
  tail call void @_ZN4cvc58internal6theory11quantifiers22SolutionFilterStrength10initializeERKSt6vectorINS0_12NodeTemplateILb1EEESaIS6_EEPNS2_12SygusSamplerE(ptr noundef nonnull align 8 dereferenceable(560) %3, ptr noundef nonnull align 8 dereferenceable(24) %4, ptr noundef null)
  tail call void @_ZN4cvc58internal6theory11quantifiers22SolutionFilterStrength18setLogicallyStrongEb(ptr noundef nonnull align 8 dereferenceable(560) %3, i1 noundef zeroext true)
  ret void
}